target datalayout = "e-m:e-p270:32:32-p271:32:32-p272:64:64-i64:64-i128:128-f80:128-n8:16:32:64-S128"
target triple = "x86_64-pc-linux-gnu"

%struct.opj_jp2 = type { ptr, ptr, ptr, i32, i32, i32, i32, i32, i32, i32, i32, i32, i32, i32, i32, i32, i32, ptr, ptr, i64, i64, i32, i32, i32, %struct.opj_jp2_color, i32, i8, i8 }
%struct.opj_jp2_color = type { ptr, i32, ptr, ptr, i8 }

; Function Attrs: nounwind uwtable
define internal i32 @opj_jp2_exec(ptr noundef %0, ptr noundef %1, ptr noundef %2, ptr noundef %3) #0 {
  %5 = alloca ptr, align 8
  %6 = alloca ptr, align 8
  %7 = alloca ptr, align 8
  %8 = alloca ptr, align 8
  %9 = alloca ptr, align 8
  %10 = alloca i32, align 4
  %11 = alloca i32, align 4
  %12 = alloca i32, align 4
  store ptr %0, ptr %5, align 8, !tbaa !3
  store ptr %1, ptr %6, align 8, !tbaa !92
  store ptr %2, ptr %7, align 8, !tbaa !8
  store ptr %3, ptr %8, align 8, !tbaa !12
  call void @llvm.lifetime.start.p0(i64 8, ptr %9) #5
  store ptr null, ptr %9, align 8, !tbaa !93
  call void @llvm.lifetime.start.p0(i64 4, ptr %10) #5
  store i32 1, ptr %10, align 4, !tbaa !39
  call void @llvm.lifetime.start.p0(i64 4, ptr %11) #5
  call void @llvm.lifetime.start.p0(i64 4, ptr %12) #5
  %13 = load ptr, ptr %6, align 8, !tbaa !92
  %14 = call i32 @opj_procedure_list_get_nb_procedures(ptr noundef %13)
  store i32 %14, ptr %11, align 4, !tbaa !39
  %15 = load ptr, ptr %6, align 8, !tbaa !92
  %16 = call ptr @opj_procedure_list_get_first_procedure(ptr noundef %15)
  store ptr %16, ptr %9, align 8, !tbaa !93
  store i32 0, ptr %12, align 4, !tbaa !39
  br label %17

17:                                               ; preds = %37, %4
  %18 = load i32, ptr %12, align 4, !tbaa !39
  %19 = load i32, ptr %11, align 4, !tbaa !39
  %20 = icmp ult i32 %18, %19
  br i1 %20, label %21, label %40

21:                                               ; preds = %17
  %22 = load i32, ptr %10, align 4, !tbaa !39
  %23 = icmp ne i32 %22, 0
  br i1 %23, label %24, label %32

24:                                               ; preds = %21
  %25 = load ptr, ptr %9, align 8, !tbaa !93
  %26 = load ptr, ptr %25, align 8, !tbaa !95
  %27 = load ptr, ptr %5, align 8, !tbaa !3
  %28 = load ptr, ptr %7, align 8, !tbaa !8
  %29 = load ptr, ptr %8, align 8, !tbaa !12
  %30 = call i32 %26(ptr noundef %27, ptr noundef %28, ptr noundef %29)
  %31 = icmp ne i32 %30, 0
  br label %32

32:                                               ; preds = %24, %21
  %33 = phi i1 [ false, %21 ], [ %31, %24 ]
  %34 = zext i1 %33 to i32
  store i32 %34, ptr %10, align 4, !tbaa !39
  %35 = load ptr, ptr %9, align 8, !tbaa !93
  %36 = getelementptr inbounds nuw ptr, ptr %35, i32 1
  store ptr %36, ptr %9, align 8, !tbaa !93
  br label %37

37:                                               ; preds = %32
  %38 = load i32, ptr %12, align 4, !tbaa !39
  %39 = add i32 %38, 1
  store i32 %39, ptr %12, align 4, !tbaa !39
  br label %17, !llvm.loop !96

40:                                               ; preds = %17
  %41 = load ptr, ptr %6, align 8, !tbaa !92
  call void @opj_procedure_list_clear(ptr noundef %41)
  %42 = load i32, ptr %10, align 4, !tbaa !39
  call void @llvm.lifetime.end.p0(i64 4, ptr %12) #5
  call void @llvm.lifetime.end.p0(i64 4, ptr %11) #5
  call void @llvm.lifetime.end.p0(i64 4, ptr %10) #5
  call void @llvm.lifetime.end.p0(i64 8, ptr %9) #5
  ret i32 %42
}

; Function Attrs: nounwind uwtable
define internal i32 @opj_jp2_setup_end_header_reading(ptr noundef %0, ptr noundef %1) #0 {
  %3 = alloca i32, align 4
  %4 = alloca ptr, align 8
  %5 = alloca ptr, align 8
  store ptr %0, ptr %4, align 8, !tbaa !3
  store ptr %1, ptr %5, align 8, !tbaa !12
  %6 = load ptr, ptr %4, align 8, !tbaa !3
  %7 = getelementptr inbounds nuw %struct.opj_jp2, ptr %6, i32 0, i32 2
  %8 = load ptr, ptr %7, align 8, !tbaa !91
  %9 = load ptr, ptr %5, align 8, !tbaa !12
  %10 = call i32 @opj_procedure_list_add_procedure(ptr noundef %8, ptr noundef @opj_jp2_read_header_procedure, ptr noundef %9)
  %11 = icmp ne i32 %10, 0
  br i1 %11, label %13, label %12

12:                                               ; preds = %2
  store i32 0, ptr %3, align 4
  br label %14

13:                                               ; preds = %2
  store i32 1, ptr %3, align 4
  br label %14

14:                                               ; preds = %13, %12
  %15 = load i32, ptr %3, align 4
  ret i32 %15
}

; Function Attrs: nounwind uwtable
define hidden i32 @opj_jp2_end_decompress(ptr noundef %0, ptr noundef %1, ptr noundef %2) #0 {
  %4 = alloca i32, align 4
  %5 = alloca ptr, align 8
  %6 = alloca ptr, align 8
  %7 = alloca ptr, align 8
  store ptr %0, ptr %5, align 8, !tbaa !3
  store ptr %1, ptr %6, align 8, !tbaa !8
  store ptr %2, ptr %7, align 8, !tbaa !12
  %8 = load ptr, ptr %5, align 8, !tbaa !3
  %9 = load ptr, ptr %7, align 8, !tbaa !12
  %10 = call i32 @opj_jp2_setup_end_header_reading(ptr noundef %8, ptr noundef %9)
  %11 = icmp ne i32 %10, 0
  br i1 %11, label %13, label %12

12:                                               ; preds = %3
  store i32 0, ptr %4, align 4
  br label %30

13:                                               ; preds = %3
  %14 = load ptr, ptr %5, align 8, !tbaa !3
  %15 = load ptr, ptr %5, align 8, !tbaa !3
  %16 = getelementptr inbounds nuw %struct.opj_jp2, ptr %15, i32 0, i32 2
  %17 = load ptr, ptr %16, align 8, !tbaa !91
  %18 = load ptr, ptr %6, align 8, !tbaa !8
  %19 = load ptr, ptr %7, align 8, !tbaa !12
  %20 = call i32 @opj_jp2_exec(ptr noundef %14, ptr noundef %17, ptr noundef %18, ptr noundef %19)
  %21 = icmp ne i32 %20, 0
  br i1 %21, label %23, label %22

22:                                               ; preds = %13
  store i32 0, ptr %4, align 4
  br label %30

23:                                               ; preds = %13
  %24 = load ptr, ptr %5, align 8, !tbaa !3
  %25 = getelementptr inbounds nuw %struct.opj_jp2, ptr %24, i32 0, i32 0
  %26 = load ptr, ptr %25, align 8, !tbaa !14
  %27 = load ptr, ptr %6, align 8, !tbaa !8
  %28 = load ptr, ptr %7, align 8, !tbaa !12
  %29 = call i32 @opj_j2k_end_decompress(ptr noundef %26, ptr noundef %27, ptr noundef %28)
  store i32 %29, ptr %4, align 4
  br label %30

30:                                               ; preds = %23, %22, %12
  %31 = load i32, ptr %4, align 4
  ret i32 %31
}