; Function Attrs: nounwind uwtable
define hidden i32 @opj_jp2_end_decompress(ptr noundef %0, ptr noundef %1, ptr noundef %2) local_unnamed_addr #0 {
  %4 = getelementptr i8, ptr %0, i64 16
  %.val = load ptr, ptr %4, align 8, !tbaa !110
  %5 = tail call i32 @opj_procedure_list_add_procedure(ptr noundef %.val, ptr noundef nonnull @opj_jp2_read_header_procedure, ptr noundef %2) #6
  %.not.i.not = icmp eq i32 %5, 0
  br i1 %.not.i.not, label %22, label %6

6:                                                ; preds = %3
  %7 = load ptr, ptr %4, align 8, !tbaa !110
  %8 = tail call i32 @opj_procedure_list_get_nb_procedures(ptr noundef %7) #6
  %9 = tail call ptr @opj_procedure_list_get_first_procedure(ptr noundef %7) #6
  %.not17.i = icmp eq i32 %8, 0
  br i1 %.not17.i, label %opj_jp2_exec.exit.thread, label %.lr.ph.i

opj_jp2_exec.exit.thread:                         ; preds = %6
  tail call void @opj_procedure_list_clear(ptr noundef %7) #6
  br label %19

.lr.ph.i:                                         ; preds = %6, %15
  %.016.i = phi i32 [ %18, %15 ], [ 0, %6 ]
  %.01215.i = phi ptr [ %17, %15 ], [ %9, %6 ]
  %.01314.i = phi i32 [ %16, %15 ], [ 1, %6 ]
  %.not.i10 = icmp eq i32 %.01314.i, 0
  br i1 %.not.i10, label %15, label %10

10:                                               ; preds = %.lr.ph.i
  %11 = load ptr, ptr %.01215.i, align 8, !tbaa !111
  %12 = tail call i32 %11(ptr noundef %0, ptr noundef %1, ptr noundef %2) #6
  %13 = icmp ne i32 %12, 0
  %14 = zext i1 %13 to i32
  br label %15

15:                                               ; preds = %10, %.lr.ph.i
  %16 = phi i32 [ 0, %.lr.ph.i ], [ %14, %10 ]
  %17 = getelementptr inbounds nuw i8, ptr %.01215.i, i64 8
  %18 = add nuw i32 %.016.i, 1
  %exitcond.not.i = icmp eq i32 %18, %8
  br i1 %exitcond.not.i, label %opj_jp2_exec.exit, label %.lr.ph.i, !llvm.loop !112

opj_jp2_exec.exit:                                ; preds = %15
  tail call void @opj_procedure_list_clear(ptr noundef %7) #6
  %.not9 = icmp eq i32 %16, 0
  br i1 %.not9, label %22, label %19

19:                                               ; preds = %opj_jp2_exec.exit.thread, %opj_jp2_exec.exit
  %20 = load ptr, ptr %0, align 8, !tbaa !3
  %21 = tail call i32 @opj_j2k_end_decompress(ptr noundef %20, ptr noundef %1, ptr noundef %2) #6
  br label %22

22:                                               ; preds = %opj_jp2_exec.exit, %3, %19
  %.0 = phi i32 [ %21, %19 ], [ 0, %3 ], [ 0, %opj_jp2_exec.exit ]
  ret i32 %.0
}